target datalayout = "e-m:e-p270:32:32-p271:32:32-p272:64:64-i64:64-i128:128-f80:128-n8:16:32:64-S128"
target triple = "x86_64-pc-linux-gnu"

%"class.boost::program_options::detail::cmdline" = type { %"class.std::vector", i32, i8, ptr, ptr, %"class.boost::function_n", %"class.boost::function_n.3" }
%"class.std::vector" = type { %"struct.std::_Vector_base" }
%"struct.std::_Vector_base" = type { %"struct.std::_Vector_base<std::__cxx11::basic_string<char>, std::allocator<std::__cxx11::basic_string<char>>>::_Vector_impl" }
%"struct.std::_Vector_base<std::__cxx11::basic_string<char>, std::allocator<std::__cxx11::basic_string<char>>>::_Vector_impl" = type { %"struct.std::_Vector_base<std::__cxx11::basic_string<char>, std::allocator<std::__cxx11::basic_string<char>>>::_Vector_impl_data" }
%"struct.std::_Vector_base<std::__cxx11::basic_string<char>, std::allocator<std::__cxx11::basic_string<char>>>::_Vector_impl_data" = type { ptr, ptr, ptr }
%"class.boost::function_n" = type { %"class.boost::function_base" }
%"class.boost::function_base" = type { ptr, %"union.boost::detail::function::function_buffer" }
%"union.boost::detail::function::function_buffer" = type { %"union.boost::detail::function::function_buffer_members" }
%"union.boost::detail::function::function_buffer_members" = type { %"struct.boost::detail::function::function_buffer_members::bound_memfunc_ptr_t" }
%"struct.boost::detail::function::function_buffer_members::bound_memfunc_ptr_t" = type { { i64, i64 }, ptr }
%"class.boost::function_n.3" = type { %"class.boost::function_base" }

; Function Attrs: mustprogress uwtable
define void @_ZN5boost15program_options6detail7cmdline4initERKSt6vectorINSt7__cxx1112basic_stringIcSt11char_traitsIcESaIcEEESaIS9_EE(ptr noundef nonnull align 8 dereferenceable(112) %0, ptr noundef nonnull align 8 dereferenceable(24) %1) #4 align 2 {
  %3 = alloca ptr, align 8
  %4 = alloca ptr, align 8
  store ptr %0, ptr %3, align 8, !tbaa !3
  store ptr %1, ptr %4, align 8, !tbaa !3
  %5 = load ptr, ptr %3, align 8
  %6 = load ptr, ptr %4, align 8, !tbaa !3
  %7 = getelementptr inbounds nuw %"class.boost::program_options::detail::cmdline", ptr %5, i32 0, i32 0
  %8 = call noundef nonnull align 8 dereferenceable(24) ptr @_ZNSt6vectorINSt7__cxx1112basic_stringIcSt11char_traitsIcESaIcEEESaIS5_EEaSERKS7_(ptr noundef nonnull align 8 dereferenceable(24) %7, ptr noundef nonnull align 8 dereferenceable(24) %6)
  %9 = getelementptr inbounds nuw %"class.boost::program_options::detail::cmdline", ptr %5, i32 0, i32 1
  store i32 1015, ptr %9, align 8, !tbaa !9
  %10 = getelementptr inbounds nuw %"class.boost::program_options::detail::cmdline", ptr %5, i32 0, i32 3
  store ptr null, ptr %10, align 8, !tbaa !20
  %11 = getelementptr inbounds nuw %"class.boost::program_options::detail::cmdline", ptr %5, i32 0, i32 4
  store ptr null, ptr %11, align 8, !tbaa !21
  %12 = getelementptr inbounds nuw %"class.boost::program_options::detail::cmdline", ptr %5, i32 0, i32 2
  store i8 0, ptr %12, align 4, !tbaa !22
  ret void
}